target datalayout = "e-m:e-p270:32:32-p271:32:32-p272:64:64-i64:64-i128:128-f80:128-n8:16:32:64-S128"
target triple = "x86_64-pc-linux-gnu"

%struct._ir_ctx = type { ptr, i32, i32, i32, i32, i32, i32, i32, i32, i32, i32, %struct._ir_insn, ptr, ptr, ptr, i32, i32, i32, ptr, ptr, ptr, ptr, ptr, ptr, i32, i32, i64, i32, i32, i32, i64, i32, i32, i32, i32, ptr, ptr, ptr, ptr, ptr, ptr, %union.anon.13, ptr, i32, i32, i32, i64, i32, i32, i32, ptr, ptr, ptr, ptr, %struct._ir_strtab, [61 x i32], [14 x i32] }
%struct._ir_insn = type { %struct.anon, %union.anon.5 }
%struct.anon = type { %union.anon, %union.anon.4 }
%union.anon = type { i32 }
%union.anon.4 = type { i32 }
%union.anon.5 = type { %union._ir_val }
%union._ir_val = type { double }
%union.anon.13 = type { ptr }
%struct._ir_strtab = type { ptr, i32, i32, i32, i32, ptr, i32, i32 }
%struct.anon.0 = type { %union.anon.1, %union.anon.3 }
%union.anon.1 = type { i16 }
%union.anon.3 = type { i16 }
%struct.anon.2 = type { i8, i8 }
%struct._ir_use_list = type { i32, i32 }
%struct.anon.6 = type { i32, i32 }

; Function Attrs: nounwind uwtable
define internal zeroext i1 @ir_may_promote_d2f(ptr noundef %0, i32 noundef %1) #0 {
  %3 = alloca i1, align 1
  %4 = alloca ptr, align 8
  %5 = alloca i32, align 4
  %6 = alloca ptr, align 8
  %7 = alloca i32, align 4
  store ptr %0, ptr %4, align 8, !tbaa !4
  store i32 %1, ptr %5, align 4, !tbaa !33
  call void @llvm.lifetime.start.p0(i64 8, ptr %6) #10
  %8 = load ptr, ptr %4, align 8, !tbaa !4
  %9 = getelementptr inbounds nuw %struct._ir_ctx, ptr %8, i32 0, i32 0
  %10 = load ptr, ptr %9, align 8, !tbaa !45
  %11 = load i32, ptr %5, align 4, !tbaa !33
  %12 = sext i32 %11 to i64
  %13 = getelementptr inbounds %struct._ir_insn, ptr %10, i64 %12
  store ptr %13, ptr %6, align 8, !tbaa !31
  %14 = load i32, ptr %5, align 4, !tbaa !33
  %15 = icmp slt i32 %14, 0
  br i1 %15, label %16, label %55

16:                                               ; preds = %2
  %17 = load ptr, ptr %6, align 8, !tbaa !31
  %18 = getelementptr inbounds nuw %struct._ir_insn, ptr %17, i32 0, i32 0
  %19 = getelementptr inbounds nuw %struct.anon, ptr %18, i32 0, i32 0
  %20 = getelementptr inbounds nuw %struct.anon.0, ptr %19, i32 0, i32 0
  %21 = getelementptr inbounds nuw %struct.anon.2, ptr %20, i32 0, i32 0
  %22 = load i8, ptr %21, align 8, !tbaa !46
  %23 = zext i8 %22 to i32
  %24 = icmp eq i32 %23, 68
  br i1 %24, label %53, label %25

25:                                               ; preds = %16
  %26 = load ptr, ptr %6, align 8, !tbaa !31
  %27 = getelementptr inbounds nuw %struct._ir_insn, ptr %26, i32 0, i32 0
  %28 = getelementptr inbounds nuw %struct.anon, ptr %27, i32 0, i32 0
  %29 = getelementptr inbounds nuw %struct.anon.0, ptr %28, i32 0, i32 0
  %30 = getelementptr inbounds nuw %struct.anon.2, ptr %29, i32 0, i32 0
  %31 = load i8, ptr %30, align 8, !tbaa !46
  %32 = zext i8 %31 to i32
  %33 = icmp eq i32 %32, 67
  br i1 %33, label %53, label %34

34:                                               ; preds = %25
  %35 = load ptr, ptr %6, align 8, !tbaa !31
  %36 = getelementptr inbounds nuw %struct._ir_insn, ptr %35, i32 0, i32 0
  %37 = getelementptr inbounds nuw %struct.anon, ptr %36, i32 0, i32 0
  %38 = getelementptr inbounds nuw %struct.anon.0, ptr %37, i32 0, i32 0
  %39 = getelementptr inbounds nuw %struct.anon.2, ptr %38, i32 0, i32 0
  %40 = load i8, ptr %39, align 8, !tbaa !46
  %41 = zext i8 %40 to i32
  %42 = icmp eq i32 %41, 66
  br i1 %42, label %53, label %43

43:                                               ; preds = %34
  %44 = load ptr, ptr %6, align 8, !tbaa !31
  %45 = getelementptr inbounds nuw %struct._ir_insn, ptr %44, i32 0, i32 1
  %46 = load double, ptr %45, align 8, !tbaa !46
  %47 = load ptr, ptr %6, align 8, !tbaa !31
  %48 = getelementptr inbounds nuw %struct._ir_insn, ptr %47, i32 0, i32 1
  %49 = load double, ptr %48, align 8, !tbaa !46
  %50 = fptrunc double %49 to float
  %51 = fpext float %50 to double
  %52 = fcmp oeq double %46, %51
  br label %53

53:                                               ; preds = %43, %34, %25, %16
  %54 = phi i1 [ false, %34 ], [ false, %25 ], [ false, %16 ], [ %52, %43 ]
  store i1 %54, ptr %3, align 1
  store i32 1, ptr %7, align 4
  br label %112

55:                                               ; preds = %2
  %56 = load ptr, ptr %6, align 8, !tbaa !31
  %57 = getelementptr inbounds nuw %struct._ir_insn, ptr %56, i32 0, i32 0
  %58 = getelementptr inbounds nuw %struct.anon, ptr %57, i32 0, i32 0
  %59 = getelementptr inbounds nuw %struct.anon.0, ptr %58, i32 0, i32 0
  %60 = getelementptr inbounds nuw %struct.anon.2, ptr %59, i32 0, i32 0
  %61 = load i8, ptr %60, align 8, !tbaa !46
  %62 = zext i8 %61 to i32
  switch i32 %62, label %109 [
    i32 37, label %63
    i32 29, label %64
    i32 30, label %64
    i32 24, label %83
    i32 25, label %83
    i32 26, label %83
    i32 27, label %83
    i32 56, label %83
    i32 57, label %83
  ]

63:                                               ; preds = %55
  store i1 true, ptr %3, align 1
  store i32 1, ptr %7, align 4
  br label %112

64:                                               ; preds = %55, %55
  %65 = load ptr, ptr %4, align 8, !tbaa !4
  %66 = getelementptr inbounds nuw %struct._ir_ctx, ptr %65, i32 0, i32 13
  %67 = load ptr, ptr %66, align 8, !tbaa !47
  %68 = load i32, ptr %5, align 4, !tbaa !33
  %69 = sext i32 %68 to i64
  %70 = getelementptr inbounds %struct._ir_use_list, ptr %67, i64 %69
  %71 = getelementptr inbounds nuw %struct._ir_use_list, ptr %70, i32 0, i32 1
  %72 = load i32, ptr %71, align 4, !tbaa !48
  %73 = icmp eq i32 %72, 1
  br i1 %73, label %74, label %81

74:                                               ; preds = %64
  %75 = load ptr, ptr %4, align 8, !tbaa !4
  %76 = load ptr, ptr %6, align 8, !tbaa !31
  %77 = getelementptr inbounds nuw %struct._ir_insn, ptr %76, i32 0, i32 0
  %78 = getelementptr inbounds nuw %struct.anon, ptr %77, i32 0, i32 1
  %79 = load i32, ptr %78, align 4, !tbaa !46
  %80 = call zeroext i1 @ir_may_promote_d2f(ptr noundef %75, i32 noundef %79)
  br label %81

81:                                               ; preds = %74, %64
  %82 = phi i1 [ false, %64 ], [ %80, %74 ]
  store i1 %82, ptr %3, align 1
  store i32 1, ptr %7, align 4
  br label %112

83:                                               ; preds = %55, %55, %55, %55, %55, %55
  %84 = load ptr, ptr %4, align 8, !tbaa !4
  %85 = getelementptr inbounds nuw %struct._ir_ctx, ptr %84, i32 0, i32 13
  %86 = load ptr, ptr %85, align 8, !tbaa !47
  %87 = load i32, ptr %5, align 4, !tbaa !33
  %88 = sext i32 %87 to i64
  %89 = getelementptr inbounds %struct._ir_use_list, ptr %86, i64 %88
  %90 = getelementptr inbounds nuw %struct._ir_use_list, ptr %89, i32 0, i32 1
  %91 = load i32, ptr %90, align 4, !tbaa !48
  %92 = icmp eq i32 %91, 1
  br i1 %92, label %93, label %107

93:                                               ; preds = %83
  %94 = load ptr, ptr %4, align 8, !tbaa !4
  %95 = load ptr, ptr %6, align 8, !tbaa !31
  %96 = getelementptr inbounds nuw %struct._ir_insn, ptr %95, i32 0, i32 0
  %97 = getelementptr inbounds nuw %struct.anon, ptr %96, i32 0, i32 1
  %98 = load i32, ptr %97, align 4, !tbaa !46
  %99 = call zeroext i1 @ir_may_promote_d2f(ptr noundef %94, i32 noundef %98)
  br i1 %99, label %100, label %107

100:                                              ; preds = %93
  %101 = load ptr, ptr %4, align 8, !tbaa !4
  %102 = load ptr, ptr %6, align 8, !tbaa !31
  %103 = getelementptr inbounds nuw %struct._ir_insn, ptr %102, i32 0, i32 1
  %104 = getelementptr inbounds nuw %struct.anon.6, ptr %103, i32 0, i32 0
  %105 = load i32, ptr %104, align 8, !tbaa !46
  %106 = call zeroext i1 @ir_may_promote_d2f(ptr noundef %101, i32 noundef %105)
  br label %107

107:                                              ; preds = %100, %93, %83
  %108 = phi i1 [ false, %93 ], [ false, %83 ], [ %106, %100 ]
  store i1 %108, ptr %3, align 1
  store i32 1, ptr %7, align 4
  br label %112

109:                                              ; preds = %55
  br label %110

110:                                              ; preds = %109
  br label %111

111:                                              ; preds = %110
  store i1 false, ptr %3, align 1
  store i32 1, ptr %7, align 4
  br label %112

112:                                              ; preds = %111, %107, %81, %63, %53
  call void @llvm.lifetime.end.p0(i64 8, ptr %6) #10
  %113 = load i1, ptr %3, align 1
  ret i1 %113
}