; Function Attrs: nofree nosync nounwind memory(read, inaccessiblemem: none) uwtable
define internal fastcc zeroext i1 @ir_may_promote_d2f(ptr noundef readonly captures(none) %0, i32 noundef %1) unnamed_addr #8 {
  %3 = load ptr, ptr %0, align 8, !tbaa !38
  %4 = sext i32 %1 to i64
  %5 = getelementptr inbounds %struct._ir_insn, ptr %3, i64 %4
  %6 = icmp slt i32 %1, 0
  br i1 %6, label %tailrecurse._crit_edge, label %.lr.ph

.lr.ph:                                           ; preds = %2
  %7 = getelementptr inbounds nuw i8, ptr %0, i64 72
  br label %15

tailrecurse._crit_edge:                           ; preds = %tailrecurse.backedge, %2
  %.lcssa = phi ptr [ %5, %2 ], [ %26, %tailrecurse.backedge ]
  %8 = load i8, ptr %.lcssa, align 8, !tbaa !39
  %.off = add i8 %8, -66
  %switch = icmp ult i8 %.off, 3
  br i1 %switch, label %.loopexit, label %9

9:                                                ; preds = %tailrecurse._crit_edge
  %10 = getelementptr inbounds nuw i8, ptr %.lcssa, i64 8
  %11 = load double, ptr %10, align 8, !tbaa !39
  %12 = fptrunc double %11 to float
  %13 = fpext float %12 to double
  %14 = fcmp oeq double %11, %13
  br label %.loopexit

15:                                               ; preds = %.lr.ph, %tailrecurse.backedge
  %16 = phi ptr [ %5, %.lr.ph ], [ %26, %tailrecurse.backedge ]
  %17 = phi i64 [ %4, %.lr.ph ], [ %25, %tailrecurse.backedge ]
  %18 = load i8, ptr %16, align 8, !tbaa !39
  switch i8 %18, label %.loopexit [
    i8 37, label %.loopexit.loopexit
    i8 29, label %19
    i8 30, label %19
    i8 24, label %28
    i8 25, label %28
    i8 26, label %28
    i8 27, label %28
    i8 56, label %28
    i8 57, label %28
  ]

19:                                               ; preds = %15, %15
  %20 = load ptr, ptr %7, align 8, !tbaa !41
  %21 = getelementptr inbounds nuw %struct._ir_use_list, ptr %20, i64 %17, i32 1
  %22 = load i32, ptr %21, align 4, !tbaa !42
  %23 = icmp eq i32 %22, 1
  br i1 %23, label %tailrecurse.backedge, label %.loopexit

tailrecurse.backedge:                             ; preds = %19, %33
  %.sink = phi i64 [ 8, %33 ], [ 4, %19 ]
  %24 = getelementptr inbounds nuw i8, ptr %16, i64 %.sink
  %.tr20.be = load i32, ptr %24, align 4, !tbaa !39
  %25 = sext i32 %.tr20.be to i64
  %26 = getelementptr inbounds %struct._ir_insn, ptr %3, i64 %25
  %27 = icmp slt i32 %.tr20.be, 0
  br i1 %27, label %tailrecurse._crit_edge, label %15

28:                                               ; preds = %15, %15, %15, %15, %15, %15
  %29 = load ptr, ptr %7, align 8, !tbaa !41
  %30 = getelementptr inbounds nuw %struct._ir_use_list, ptr %29, i64 %17, i32 1
  %31 = load i32, ptr %30, align 4, !tbaa !42
  %32 = icmp eq i32 %31, 1
  br i1 %32, label %33, label %.loopexit

33:                                               ; preds = %28
  %34 = getelementptr inbounds nuw i8, ptr %16, i64 4
  %35 = load i32, ptr %34, align 4, !tbaa !39
  %36 = tail call fastcc zeroext i1 @ir_may_promote_d2f(ptr noundef nonnull %0, i32 noundef %35)
  br i1 %36, label %tailrecurse.backedge, label %.loopexit

.loopexit.loopexit:                               ; preds = %15
  br label %.loopexit

.loopexit:                                        ; preds = %28, %33, %19, %15, %.loopexit.loopexit, %tailrecurse._crit_edge, %9
  %.0 = phi i1 [ %14, %9 ], [ false, %tailrecurse._crit_edge ], [ true, %.loopexit.loopexit ], [ false, %15 ], [ false, %19 ], [ false, %33 ], [ false, %28 ]
  ret i1 %.0
}